(lp0
S'poi'
p1
aS'salary'
p2
aS'loan_advances'
p3
aS'bonus'
p4
aS'deferred_income'
p5
aS'exercised_stock_options'
p6
aS'total_stock_value'
p7
aS'to_messages'
p8
aS'other'
p9
aS'long_term_incentive'
p10
aS'director_fees'
p11
ag9
ag2
a.